target datalayout = "e-m:e-p270:32:32-p271:32:32-p272:64:64-i64:64-i128:128-f80:128-n8:16:32:64-S128"
target triple = "x86_64-pc-linux-gnu"

%struct.expert_field = type { i32, i32 }
%struct._packet_info = type { ptr, ptr, i32, i32, %struct.nstime_t, %struct.nstime_t, %struct.nstime_t, i8, ptr, ptr, ptr, ptr, %struct._address, %struct._address, %struct._address, %struct._address, %struct._address, %struct._address, i32, ptr, i8, [3 x i8], %struct.anon, i32, i32, i32, i32, ptr, i8, ptr, ptr, i16, i16, i32, i32, i16, i32, i32, ptr, ptr, ptr, i8, i8, i16, i16, i16, i32, i16, i16, ptr, ptr, ptr, ptr, ptr, i32, i32 }
%struct.nstime_t = type { i64, i32 }
%struct._address = type { i32, i32, ptr, ptr }
%struct.anon = type { i8, [3 x i8] }

@hf_tcpip_lcd_acd_activity = internal global i32 0, align 4
@hf_tcpip_lcd_remote_mac = internal global i32 0, align 4
@hf_tcpip_lcd_arp_pdu = internal global i32 0, align 4
@ei_mal_tcpip_last_conflict = internal global %struct.expert_field zeroinitializer, align 4
@arp_handle = internal global ptr null, align 8

; Function Attrs: null_pointer_is_valid sspstrong uwtable
define internal i32 @dissect_tcpip_last_conflict(ptr noundef %0, ptr noundef %1, ptr noundef %2, ptr noundef %3, i32 noundef %4, i32 noundef %5) #0 {
  %7 = alloca i32, align 4
  %8 = alloca ptr, align 8
  %9 = alloca ptr, align 8
  %10 = alloca ptr, align 8
  %11 = alloca ptr, align 8
  %12 = alloca i32, align 4
  %13 = alloca i32, align 4
  %14 = alloca ptr, align 8
  %15 = alloca i8, align 1
  %16 = alloca i32, align 4
  store ptr %0, ptr %8, align 8
  store ptr %1, ptr %9, align 8
  store ptr %2, ptr %10, align 8
  store ptr %3, ptr %11, align 8
  store i32 %4, ptr %12, align 4
  store i32 %5, ptr %13, align 4
  call void @llvm.lifetime.start.p0(i64 8, ptr %14) #14
  call void @llvm.lifetime.start.p0(i64 1, ptr %15) #14
  %17 = load i32, ptr %13, align 4
  %18 = icmp slt i32 %17, 35
  br i1 %18, label %19, label %24

19:                                               ; preds = %6
  %20 = load ptr, ptr %8, align 8
  %21 = load ptr, ptr %10, align 8
  %22 = call ptr @expert_add_info(ptr noundef %20, ptr noundef %21, ptr noundef @ei_mal_tcpip_last_conflict)
  %23 = load i32, ptr %13, align 4
  store i32 %23, ptr %7, align 4
  store i32 1, ptr %16, align 4
  br label %72

24:                                               ; preds = %6
  %25 = load ptr, ptr %9, align 8
  %26 = load i32, ptr @hf_tcpip_lcd_acd_activity, align 4
  %27 = load ptr, ptr %11, align 8
  %28 = load i32, ptr %12, align 4
  %29 = call ptr @proto_tree_add_item(ptr noundef %25, i32 noundef %26, ptr noundef %27, i32 noundef %28, i32 noundef 1, i32 noundef -2147483648)
  %30 = load ptr, ptr %9, align 8
  %31 = load i32, ptr @hf_tcpip_lcd_remote_mac, align 4
  %32 = load ptr, ptr %11, align 8
  %33 = load i32, ptr %12, align 4
  %34 = add i32 %33, 1
  %35 = call ptr @proto_tree_add_item(ptr noundef %30, i32 noundef %31, ptr noundef %32, i32 noundef %34, i32 noundef 6, i32 noundef 0)
  %36 = load ptr, ptr %11, align 8
  %37 = load i32, ptr %12, align 4
  %38 = call zeroext i8 @tvb_get_uint8(ptr noundef %36, i32 noundef %37)
  %39 = zext i8 %38 to i32
  %40 = icmp eq i32 %39, 0
  br i1 %40, label %41, label %48

41:                                               ; preds = %24
  %42 = load ptr, ptr %9, align 8
  %43 = load i32, ptr @hf_tcpip_lcd_arp_pdu, align 4
  %44 = load ptr, ptr %11, align 8
  %45 = load i32, ptr %12, align 4
  %46 = add i32 %45, 7
  %47 = call ptr @proto_tree_add_item(ptr noundef %42, i32 noundef %43, ptr noundef %44, i32 noundef %46, i32 noundef 28, i32 noundef 0)
  br label %71

48:                                               ; preds = %24
  %49 = load ptr, ptr %8, align 8
  %50 = getelementptr inbounds nuw %struct._packet_info, ptr %49, i32 0, i32 1
  %51 = load ptr, ptr %50, align 8
  %52 = call zeroext i1 @col_get_writable(ptr noundef %51, i32 noundef -1)
  %53 = zext i1 %52 to i8
  store i8 %53, ptr %15, align 1
  %54 = load ptr, ptr %8, align 8
  %55 = getelementptr inbounds nuw %struct._packet_info, ptr %54, i32 0, i32 1
  %56 = load ptr, ptr %55, align 8
  call void @col_set_writable(ptr noundef %56, i32 noundef -1, i1 noundef zeroext false)
  %57 = load ptr, ptr %11, align 8
  %58 = load i32, ptr %12, align 4
  %59 = add i32 %58, 7
  %60 = call ptr @tvb_new_subset_length(ptr noundef %57, i32 noundef %59, i32 noundef 28)
  store ptr %60, ptr %14, align 8
  %61 = load ptr, ptr @arp_handle, align 8
  %62 = load ptr, ptr %14, align 8
  %63 = load ptr, ptr %8, align 8
  %64 = load ptr, ptr %9, align 8
  %65 = call i32 @call_dissector(ptr noundef %61, ptr noundef %62, ptr noundef %63, ptr noundef %64)
  %66 = load ptr, ptr %8, align 8
  %67 = getelementptr inbounds nuw %struct._packet_info, ptr %66, i32 0, i32 1
  %68 = load ptr, ptr %67, align 8
  %69 = load i8, ptr %15, align 1, !range !9, !noundef !10
  %70 = trunc i8 %69 to i1
  call void @col_set_writable(ptr noundef %68, i32 noundef -1, i1 noundef zeroext %70)
  br label %71

71:                                               ; preds = %48, %41
  store i32 35, ptr %7, align 4
  store i32 1, ptr %16, align 4
  br label %72

72:                                               ; preds = %71, %19
  call void @llvm.lifetime.end.p0(i64 1, ptr %15) #14
  call void @llvm.lifetime.end.p0(i64 8, ptr %14) #14
  %73 = load i32, ptr %7, align 4
  ret i32 %73
}