; Function Attrs: null_pointer_is_valid sspstrong uwtable
define internal range(i32 -2147483648, 36) i32 @dissect_tcpip_last_conflict(ptr noundef %0, ptr noundef %1, ptr noundef %2, ptr noundef %3, i32 noundef %4, i32 noundef %5) #0 {
  %7 = icmp slt i32 %5, 35
  br i1 %7, label %8, label %10

8:                                                ; preds = %6
  %9 = tail call ptr @expert_add_info(ptr noundef %0, ptr noundef %2, ptr noundef nonnull @ei_mal_tcpip_last_conflict)
  br label %32

10:                                               ; preds = %6
  %11 = load i32, ptr @hf_tcpip_lcd_acd_activity, align 4
  %12 = tail call ptr @proto_tree_add_item(ptr noundef %1, i32 noundef %11, ptr noundef %3, i32 noundef %4, i32 noundef 1, i32 noundef -2147483648)
  %13 = load i32, ptr @hf_tcpip_lcd_remote_mac, align 4
  %14 = add i32 %4, 1
  %15 = tail call ptr @proto_tree_add_item(ptr noundef %1, i32 noundef %13, ptr noundef %3, i32 noundef %14, i32 noundef 6, i32 noundef 0)
  %16 = tail call zeroext i8 @tvb_get_uint8(ptr noundef %3, i32 noundef %4)
  %17 = icmp eq i8 %16, 0
  br i1 %17, label %18, label %22

18:                                               ; preds = %10
  %19 = load i32, ptr @hf_tcpip_lcd_arp_pdu, align 4
  %20 = add i32 %4, 7
  %21 = tail call ptr @proto_tree_add_item(ptr noundef %1, i32 noundef %19, ptr noundef %3, i32 noundef %20, i32 noundef 28, i32 noundef 0)
  br label %32

22:                                               ; preds = %10
  %23 = getelementptr inbounds nuw i8, ptr %0, i64 8
  %24 = load ptr, ptr %23, align 8
  %25 = tail call zeroext i1 @col_get_writable(ptr noundef %24, i32 noundef -1)
  %26 = load ptr, ptr %23, align 8
  tail call void @col_set_writable(ptr noundef %26, i32 noundef -1, i1 noundef zeroext false)
  %27 = add i32 %4, 7
  %28 = tail call ptr @tvb_new_subset_length(ptr noundef %3, i32 noundef %27, i32 noundef 28)
  %29 = load ptr, ptr @arp_handle, align 8
  %30 = tail call i32 @call_dissector(ptr noundef %29, ptr noundef %28, ptr noundef %0, ptr noundef %1)
  %31 = load ptr, ptr %23, align 8
  tail call void @col_set_writable(ptr noundef %31, i32 noundef -1, i1 noundef zeroext %25)
  br label %32

32:                                               ; preds = %18, %22, %8
  %.0 = phi i32 [ %5, %8 ], [ 35, %22 ], [ 35, %18 ]
  ret i32 %.0
}